; Function Attrs: nounwind uwtable
define dso_local void @updateStatsOnUnblock(ptr noundef %0, i64 noundef %1, i64 noundef %2, i32 noundef %3) local_unnamed_addr #0 {
  %5 = getelementptr inbounds nuw i8, ptr %0, i64 224
  %6 = load i64, ptr %5, align 8, !tbaa !57
  %7 = add i64 %2, %1
  %8 = add i64 %7, %6
  %9 = getelementptr inbounds nuw i8, ptr %0, i64 136
  %10 = load ptr, ptr %9, align 8, !tbaa !58
  %11 = getelementptr inbounds nuw i8, ptr %10, i64 176
  %12 = load i64, ptr %11, align 8, !tbaa !59
  %13 = add nsw i64 %12, %8
  store i64 %13, ptr %11, align 8, !tbaa !59
  %14 = getelementptr inbounds nuw i8, ptr %10, i64 184
  %15 = load i64, ptr %14, align 8, !tbaa !65
  %16 = add nsw i64 %15, 1
  store i64 %16, ptr %14, align 8, !tbaa !65
  %17 = load i64, ptr getelementptr inbounds nuw (i8, ptr @server, i64 2472), align 8, !tbaa !66
  %18 = add nsw i64 %17, 1
  store i64 %18, ptr getelementptr inbounds nuw (i8, ptr @server, i64 2472), align 8, !tbaa !66
  %.not = icmp eq i32 %3, 0
  br i1 %.not, label %23, label %19

19:                                               ; preds = %4
  %20 = getelementptr inbounds nuw i8, ptr %10, i64 200
  %21 = load i64, ptr %20, align 8, !tbaa !67
  %22 = add nsw i64 %21, 1
  store i64 %22, ptr %20, align 8, !tbaa !67
  br label %23

23:                                               ; preds = %19, %4
  %24 = load i32, ptr getelementptr inbounds nuw (i8, ptr @server, i64 6488), align 8, !tbaa !68
  %.not16 = icmp eq i32 %24, 0
  br i1 %.not16, label %28, label %25

25:                                               ; preds = %23
  %26 = getelementptr inbounds nuw i8, ptr %10, i64 224
  %27 = mul nsw i64 %8, 1000
  tail call void @updateCommandLatencyHistogram(ptr noundef nonnull %26, i64 noundef %27) #5
  %.pre = load ptr, ptr %9, align 8, !tbaa !58
  br label %28

28:                                               ; preds = %25, %23
  %29 = phi ptr [ %.pre, %25 ], [ %10, %23 ]
  tail call void @slowlogPushCurrentCommand(ptr noundef nonnull %0, ptr noundef %29, i64 noundef %8) #5
  store i64 0, ptr %5, align 8, !tbaa !57
  %30 = load i64, ptr getelementptr inbounds nuw (i8, ptr @server, i64 8064), align 8, !tbaa !69
  %.not17 = icmp eq i64 %30, 0
  br i1 %.not17, label %34, label %31

31:                                               ; preds = %28
  %32 = sdiv i64 %2, 1000
  %.not18 = icmp slt i64 %32, %30
  br i1 %.not18, label %34, label %33

33:                                               ; preds = %31
  tail call void @latencyAddSample(ptr noundef nonnull @.str.2, i64 noundef %32) #5
  br label %34

34:                                               ; preds = %33, %31, %28
  ret void
}